; Function Attrs: mustprogress nofree norecurse nounwind memory(readwrite, inaccessiblemem: none) uwtable
define void @_ZN7rocksdb19ThreadStatusUpdater18SetThreadOperationENS_12ThreadStatus13OperationTypeE(ptr noundef nonnull readnone align 8 captures(none) dereferenceable(216) %0, i32 noundef %1) local_unnamed_addr #7 align 2 {
  %3 = tail call align 8 ptr @llvm.threadlocal.address.p0(ptr align 8 @_ZN7rocksdb19ThreadStatusUpdater19thread_status_data_E)
  %4 = load ptr, ptr %3, align 8, !tbaa !14
  %5 = icmp eq ptr %4, null
  br i1 %5, label %_ZN7rocksdb19ThreadStatusUpdater30ClearThreadOperationPropertiesEv.exit, label %6

6:                                                ; preds = %2
  %7 = load atomic i8, ptr %4 monotonic, align 1
  %8 = trunc i8 %7 to i1
  br i1 %8, label %_ZN7rocksdb19ThreadStatusUpdater20GetLocalThreadStatusEv.exit, label %_ZN7rocksdb19ThreadStatusUpdater30ClearThreadOperationPropertiesEv.exit

_ZN7rocksdb19ThreadStatusUpdater20GetLocalThreadStatusEv.exit: ; preds = %6
  %9 = getelementptr inbounds nuw i8, ptr %4, i64 32
  store atomic i32 %1, ptr %9 release, align 4
  %10 = icmp eq i32 %1, 0
  br i1 %10, label %11, label %_ZN7rocksdb19ThreadStatusUpdater30ClearThreadOperationPropertiesEv.exit

11:                                               ; preds = %_ZN7rocksdb19ThreadStatusUpdater20GetLocalThreadStatusEv.exit
  %12 = getelementptr inbounds nuw i8, ptr %4, i64 48
  store atomic i32 0, ptr %12 monotonic, align 4
  %13 = load atomic i8, ptr %4 monotonic, align 1
  %14 = trunc i8 %13 to i1
  br i1 %14, label %_ZN7rocksdb19ThreadStatusUpdater20GetLocalThreadStatusEv.exit.preheader.i, label %_ZN7rocksdb19ThreadStatusUpdater30ClearThreadOperationPropertiesEv.exit

_ZN7rocksdb19ThreadStatusUpdater20GetLocalThreadStatusEv.exit.preheader.i: ; preds = %11
  %15 = getelementptr inbounds nuw i8, ptr %4, i64 56
  br label %_ZN7rocksdb19ThreadStatusUpdater20GetLocalThreadStatusEv.exit.i

_ZN7rocksdb19ThreadStatusUpdater20GetLocalThreadStatusEv.exit.i: ; preds = %_ZN7rocksdb19ThreadStatusUpdater20GetLocalThreadStatusEv.exit.i, %_ZN7rocksdb19ThreadStatusUpdater20GetLocalThreadStatusEv.exit.preheader.i
  %indvars.iv.i = phi i64 [ 0, %_ZN7rocksdb19ThreadStatusUpdater20GetLocalThreadStatusEv.exit.preheader.i ], [ %indvars.iv.next.i, %_ZN7rocksdb19ThreadStatusUpdater20GetLocalThreadStatusEv.exit.i ]
  %16 = getelementptr inbounds nuw [6 x %"struct.std::atomic.0"], ptr %15, i64 0, i64 %indvars.iv.i
  store atomic i64 0, ptr %16 monotonic, align 8
  %indvars.iv.next.i = add nuw nsw i64 %indvars.iv.i, 1
  %exitcond.not.i = icmp eq i64 %indvars.iv.next.i, 6
  br i1 %exitcond.not.i, label %_ZN7rocksdb19ThreadStatusUpdater30ClearThreadOperationPropertiesEv.exit, label %_ZN7rocksdb19ThreadStatusUpdater20GetLocalThreadStatusEv.exit.i, !llvm.loop !19

_ZN7rocksdb19ThreadStatusUpdater30ClearThreadOperationPropertiesEv.exit: ; preds = %_ZN7rocksdb19ThreadStatusUpdater20GetLocalThreadStatusEv.exit.i, %6, %2, %11, %_ZN7rocksdb19ThreadStatusUpdater20GetLocalThreadStatusEv.exit
  ret void
}